target datalayout = "e-m:e-p270:32:32-p271:32:32-p272:64:64-i64:64-i128:128-f80:128-n8:16:32:64-S128"
target triple = "x86_64-unknown-linux-gnu"

%struct.QTailQLink = type { ptr, ptr }
%struct.BlockDriverState = type { i32, i8, i8, i8, i8, i8, ptr, ptr, ptr, %struct.anon, i8, [4096 x i8], [4096 x i8], [4096 x i8], [16 x i8], ptr, [4096 x i8], %struct.BlockLimits, i32, i32, i32, i32, [32 x i8], %union.anon.0, %union.anon.1, %union.anon.2, i32, [16 x %struct.anon.3], ptr, %struct.anon.4, ptr, ptr, %struct.anon.5, ptr, ptr, i32, ptr, i64, i64, %struct.QemuMutex, %struct.anon.6, %struct.Stat64, i32, i32, i32, i32, i32, i32, %struct.QemuMutex, %struct.anon.7, %struct.CoQueue, i8, i32, i8, %struct.CoMutex, ptr, ptr }
%struct.anon = type { ptr }
%struct.BlockLimits = type { i32, i64, i32, i64, i32, i32, i32, i64, i32, i64, i64, i32, i8, i32, i32, i32, i32, i32, i32, i32 }
%union.anon.0 = type { %struct.QTailQLink }
%union.anon.1 = type { %struct.QTailQLink }
%union.anon.2 = type { %struct.QTailQLink }
%struct.anon.3 = type { ptr }
%struct.anon.4 = type { ptr }
%struct.anon.5 = type { ptr }
%struct.anon.6 = type { ptr }
%struct.Stat64 = type { i64 }
%struct.QemuMutex = type { %union.pthread_mutex_t, i8 }
%union.pthread_mutex_t = type { %struct.__pthread_mutex_s }
%struct.__pthread_mutex_s = type { i32, i32, i32, i32, i32, i16, i16, %struct.__pthread_internal_list }
%struct.__pthread_internal_list = type { ptr, ptr }
%struct.anon.7 = type { ptr }
%struct.CoQueue = type { %struct.anon.8 }
%struct.anon.8 = type { ptr, ptr }
%struct.CoMutex = type { i32, ptr, %struct.anon.9, %struct.anon.9, i32, i32, ptr }
%struct.anon.9 = type { ptr }
%struct.BlockDriver = type { ptr, i32, i8, i8, i8, i8, i8, i8, ptr, ptr, ptr, ptr, ptr, ptr, ptr, ptr, ptr, ptr, ptr, ptr, ptr, ptr, ptr, ptr, ptr, ptr, ptr, ptr, ptr, ptr, ptr, ptr, ptr, ptr, ptr, ptr, ptr, ptr, ptr, ptr, ptr, ptr, ptr, ptr, ptr, ptr, ptr, ptr, ptr, ptr, ptr, ptr, ptr, ptr, ptr, ptr, ptr, ptr, ptr, ptr, ptr, %struct.anon.10, ptr, ptr, ptr, ptr, ptr, ptr, ptr, ptr, ptr, ptr, ptr, ptr, ptr, ptr, ptr, ptr, ptr, ptr, ptr, ptr, ptr, ptr, ptr, ptr, ptr, ptr, ptr, ptr, ptr, ptr, ptr, ptr, ptr, ptr, ptr, ptr, ptr, ptr, ptr, ptr, ptr, ptr, ptr, ptr, ptr, ptr, ptr, ptr, ptr }
%struct.anon.10 = type { ptr, ptr }

@.str.6 = private unnamed_addr constant [22 x i8] c"qemu_in_main_thread()\00", align 1
@.str.7 = private unnamed_addr constant [25 x i8] c"../qemu/block/snapshot.c\00", align 1
@__PRETTY_FUNCTION__.bdrv_snapshot_create = private unnamed_addr constant [65 x i8] c"int bdrv_snapshot_create(BlockDriverState *, QEMUSnapshotInfo *)\00", align 1

; Function Attrs: nounwind sspstrong uwtable
define dso_local i32 @bdrv_snapshot_create(ptr noundef %bs, ptr noundef %sn_info) #0 {
entry:
  %retval = alloca i32, align 4
  %bs.addr = alloca ptr, align 8
  %sn_info.addr = alloca ptr, align 8
  %drv = alloca ptr, align 8
  %fallback_bs = alloca ptr, align 8
  store ptr %bs, ptr %bs.addr, align 8
  store ptr %sn_info, ptr %sn_info.addr, align 8
  %0 = load ptr, ptr %bs.addr, align 8
  %drv1 = getelementptr inbounds %struct.BlockDriverState, ptr %0, i32 0, i32 6
  %1 = load ptr, ptr %drv1, align 8
  store ptr %1, ptr %drv, align 8
  %2 = load ptr, ptr %bs.addr, align 8
  %call = call ptr @bdrv_snapshot_fallback(ptr noundef %2)
  store ptr %call, ptr %fallback_bs, align 8
  br label %do.body

do.body:                                          ; preds = %entry
  %call2 = call zeroext i1 @qemu_in_main_thread()
  br i1 %call2, label %if.then, label %if.else

if.then:                                          ; preds = %do.body
  br label %if.end

if.else:                                          ; preds = %do.body
  call void @__assert_fail(ptr noundef @.str.6, ptr noundef @.str.7, i32 noundef 221, ptr noundef @__PRETTY_FUNCTION__.bdrv_snapshot_create) #6
  unreachable

if.end:                                           ; preds = %if.then
  br label %do.end

do.end:                                           ; preds = %if.end
  %3 = load ptr, ptr %drv, align 8
  %tobool = icmp ne ptr %3, null
  br i1 %tobool, label %if.end4, label %if.then3

if.then3:                                         ; preds = %do.end
  store i32 -123, ptr %retval, align 4
  br label %return

if.end4:                                          ; preds = %do.end
  %4 = load ptr, ptr %drv, align 8
  %bdrv_snapshot_create = getelementptr inbounds %struct.BlockDriver, ptr %4, i32 0, i32 35
  %5 = load ptr, ptr %bdrv_snapshot_create, align 8
  %tobool5 = icmp ne ptr %5, null
  br i1 %tobool5, label %if.then6, label %if.end9

if.then6:                                         ; preds = %if.end4
  %6 = load ptr, ptr %drv, align 8
  %bdrv_snapshot_create7 = getelementptr inbounds %struct.BlockDriver, ptr %6, i32 0, i32 35
  %7 = load ptr, ptr %bdrv_snapshot_create7, align 8
  %8 = load ptr, ptr %bs.addr, align 8
  %9 = load ptr, ptr %sn_info.addr, align 8
  %call8 = call i32 %7(ptr noundef %8, ptr noundef %9)
  store i32 %call8, ptr %retval, align 4
  br label %return

if.end9:                                          ; preds = %if.end4
  %10 = load ptr, ptr %fallback_bs, align 8
  %tobool10 = icmp ne ptr %10, null
  br i1 %tobool10, label %if.then11, label %if.end13

if.then11:                                        ; preds = %if.end9
  %11 = load ptr, ptr %fallback_bs, align 8
  %12 = load ptr, ptr %sn_info.addr, align 8
  %call12 = call i32 @bdrv_snapshot_create(ptr noundef %11, ptr noundef %12)
  store i32 %call12, ptr %retval, align 4
  br label %return

if.end13:                                         ; preds = %if.end9
  store i32 -95, ptr %retval, align 4
  br label %return

return:                                           ; preds = %if.end13, %if.then11, %if.then6, %if.then3
  %13 = load i32, ptr %retval, align 4
  ret i32 %13
}