; Function Attrs: nounwind sspstrong uwtable
define dso_local i32 @bdrv_snapshot_create(ptr noundef %bs, ptr noundef %sn_info) local_unnamed_addr #0 {
entry:
  br label %tailrecurse

tailrecurse:                                      ; preds = %if.end9, %entry
  %bs.tr = phi ptr [ %bs, %entry ], [ %call, %if.end9 ]
  %drv1 = getelementptr inbounds nuw i8, ptr %bs.tr, i64 16
  %0 = load ptr, ptr %drv1, align 8
  %call = tail call fastcc ptr @bdrv_snapshot_fallback(ptr noundef %bs.tr)
  %call2 = tail call zeroext i1 @qemu_in_main_thread() #6
  br i1 %call2, label %do.end, label %if.else

if.else:                                          ; preds = %tailrecurse
  tail call void @__assert_fail(ptr noundef nonnull @.str.6, ptr noundef nonnull @.str.7, i32 noundef 221, ptr noundef nonnull @__PRETTY_FUNCTION__.bdrv_snapshot_create) #7
  unreachable

do.end:                                           ; preds = %tailrecurse
  %tobool.not = icmp eq ptr %0, null
  br i1 %tobool.not, label %return, label %if.end4

if.end4:                                          ; preds = %do.end
  %bdrv_snapshot_create = getelementptr inbounds nuw i8, ptr %0, i64 240
  %1 = load ptr, ptr %bdrv_snapshot_create, align 8
  %tobool5.not = icmp eq ptr %1, null
  br i1 %tobool5.not, label %if.end9, label %if.then6

if.then6:                                         ; preds = %if.end4
  %call8 = tail call i32 %1(ptr noundef nonnull %bs.tr, ptr noundef %sn_info) #6
  br label %return

if.end9:                                          ; preds = %if.end4
  %tobool10.not = icmp eq ptr %call, null
  br i1 %tobool10.not, label %return, label %tailrecurse

return:                                           ; preds = %if.end9, %do.end, %if.then6
  %retval.0 = phi i32 [ %call8, %if.then6 ], [ -95, %if.end9 ], [ -123, %do.end ]
  ret i32 %retval.0
}